; Function Attrs: mustprogress nofree norecurse nosync nounwind willreturn memory(argmem: readwrite) uwtable
define hidden void @_ZNK3ade4Node8outEdgesEv(ptr dead_on_unwind noalias writable writeonly sret(%"struct.ade::util::Range::MapRange.38") align 8 captures(none) initializes((0, 16)) %0, ptr noundef nonnull readonly align 8 captures(none) dereferenceable(72) %1) local_unnamed_addr #9 align 2 {
  %3 = getelementptr inbounds nuw i8, ptr %1, i64 48
  %4 = load ptr, ptr %3, align 8, !tbaa !21
  %5 = getelementptr inbounds nuw i8, ptr %1, i64 56
  %6 = load ptr, ptr %5, align 8, !tbaa !21
  store ptr %4, ptr %0, align 8, !tbaa !21
  %.sroa.4.0..sroa_idx = getelementptr inbounds nuw i8, ptr %0, i64 8
  store ptr %6, ptr %.sroa.4.0..sroa_idx, align 8, !tbaa !21
  ret void
}